target datalayout = "e-m:e-p270:32:32-p271:32:32-p272:64:64-i64:64-i128:128-f80:128-n8:16:32:64-S128"
target triple = "x86_64-pc-linux-gnu"

%struct.hmac_data_st = type { ptr, ptr, %struct.PROV_DIGEST, ptr, i64, i64, [13 x i8], i32, [64 x i8], i64 }
%struct.PROV_DIGEST = type { ptr, ptr, ptr }

@.str = private unnamed_addr constant [54 x i8] c"../openssl/providers/implementations/macs/hmac_prov.c\00", align 1

; Function Attrs: nounwind uwtable
define internal void @hmac_free(ptr noundef %0) #0 {
  %2 = alloca ptr, align 8
  %3 = alloca ptr, align 8
  store ptr %0, ptr %2, align 8, !tbaa !3
  call void @llvm.lifetime.start.p0(i64 8, ptr %3) #6
  %4 = load ptr, ptr %2, align 8, !tbaa !3
  store ptr %4, ptr %3, align 8, !tbaa !7
  %5 = load ptr, ptr %3, align 8, !tbaa !7
  %6 = icmp ne ptr %5, null
  br i1 %6, label %7, label %20

7:                                                ; preds = %1
  %8 = load ptr, ptr %3, align 8, !tbaa !7
  %9 = getelementptr inbounds nuw %struct.hmac_data_st, ptr %8, i32 0, i32 1
  %10 = load ptr, ptr %9, align 8, !tbaa !9
  call void @HMAC_CTX_free(ptr noundef %10)
  %11 = load ptr, ptr %3, align 8, !tbaa !7
  %12 = getelementptr inbounds nuw %struct.hmac_data_st, ptr %11, i32 0, i32 2
  call void @ossl_prov_digest_reset(ptr noundef %12)
  %13 = load ptr, ptr %3, align 8, !tbaa !7
  %14 = getelementptr inbounds nuw %struct.hmac_data_st, ptr %13, i32 0, i32 3
  %15 = load ptr, ptr %14, align 8, !tbaa !27
  %16 = load ptr, ptr %3, align 8, !tbaa !7
  %17 = getelementptr inbounds nuw %struct.hmac_data_st, ptr %16, i32 0, i32 4
  %18 = load i64, ptr %17, align 8, !tbaa !28
  call void @CRYPTO_secure_clear_free(ptr noundef %15, i64 noundef %18, ptr noundef @.str, i32 noundef 101)
  %19 = load ptr, ptr %3, align 8, !tbaa !7
  call void @CRYPTO_free(ptr noundef %19, ptr noundef @.str, i32 noundef 102)
  br label %20

20:                                               ; preds = %7, %1
  call void @llvm.lifetime.end.p0(i64 8, ptr %3) #6
  ret void
}

; Function Attrs: nounwind uwtable
define internal ptr @hmac_new(ptr noundef %0) #0 {
  %2 = alloca ptr, align 8
  %3 = alloca ptr, align 8
  %4 = alloca ptr, align 8
  %5 = alloca i32, align 4
  store ptr %0, ptr %3, align 8, !tbaa !3
  call void @llvm.lifetime.start.p0(i64 8, ptr %4) #6
  %6 = call i32 @ossl_prov_is_running()
  %7 = icmp ne i32 %6, 0
  br i1 %7, label %9, label %8

8:                                                ; preds = %1
  store ptr null, ptr %2, align 8
  store i32 1, ptr %5, align 4
  br label %24

9:                                                ; preds = %1
  %10 = call noalias ptr @CRYPTO_zalloc(i64 noundef 160, ptr noundef @.str, i32 noundef 83)
  store ptr %10, ptr %4, align 8, !tbaa !7
  %11 = icmp eq ptr %10, null
  br i1 %11, label %17, label %12

12:                                               ; preds = %9
  %13 = call ptr @HMAC_CTX_new()
  %14 = load ptr, ptr %4, align 8, !tbaa !7
  %15 = getelementptr inbounds nuw %struct.hmac_data_st, ptr %14, i32 0, i32 1
  store ptr %13, ptr %15, align 8, !tbaa !9
  %16 = icmp eq ptr %13, null
  br i1 %16, label %17, label %19

17:                                               ; preds = %12, %9
  %18 = load ptr, ptr %4, align 8, !tbaa !7
  call void @CRYPTO_free(ptr noundef %18, ptr noundef @.str, i32 noundef 85)
  store ptr null, ptr %2, align 8
  store i32 1, ptr %5, align 4
  br label %24

19:                                               ; preds = %12
  %20 = load ptr, ptr %3, align 8, !tbaa !3
  %21 = load ptr, ptr %4, align 8, !tbaa !7
  %22 = getelementptr inbounds nuw %struct.hmac_data_st, ptr %21, i32 0, i32 0
  store ptr %20, ptr %22, align 8, !tbaa !18
  %23 = load ptr, ptr %4, align 8, !tbaa !7
  store ptr %23, ptr %2, align 8
  store i32 1, ptr %5, align 4
  br label %24

24:                                               ; preds = %19, %17, %8
  call void @llvm.lifetime.end.p0(i64 8, ptr %4) #6
  %25 = load ptr, ptr %2, align 8
  ret ptr %25
}

; Function Attrs: nounwind uwtable
define internal ptr @hmac_dup(ptr noundef %0) #0 {
  %2 = alloca ptr, align 8
  %3 = alloca ptr, align 8
  %4 = alloca ptr, align 8
  %5 = alloca ptr, align 8
  %6 = alloca ptr, align 8
  %7 = alloca i32, align 4
  store ptr %0, ptr %3, align 8, !tbaa !3
  call void @llvm.lifetime.start.p0(i64 8, ptr %4) #6
  %8 = load ptr, ptr %3, align 8, !tbaa !3
  store ptr %8, ptr %4, align 8, !tbaa !7
  call void @llvm.lifetime.start.p0(i64 8, ptr %5) #6
  call void @llvm.lifetime.start.p0(i64 8, ptr %6) #6
  %9 = call i32 @ossl_prov_is_running()
  %10 = icmp ne i32 %9, 0
  br i1 %10, label %12, label %11

11:                                               ; preds = %1
  store ptr null, ptr %2, align 8
  store i32 1, ptr %7, align 4
  br label %88

12:                                               ; preds = %1
  %13 = load ptr, ptr %4, align 8, !tbaa !7
  %14 = getelementptr inbounds nuw %struct.hmac_data_st, ptr %13, i32 0, i32 0
  %15 = load ptr, ptr %14, align 8, !tbaa !18
  %16 = call ptr @hmac_new(ptr noundef %15)
  store ptr %16, ptr %5, align 8, !tbaa !7
  %17 = load ptr, ptr %5, align 8, !tbaa !7
  %18 = icmp eq ptr %17, null
  br i1 %18, label %19, label %20

19:                                               ; preds = %12
  store ptr null, ptr %2, align 8
  store i32 1, ptr %7, align 4
  br label %88

20:                                               ; preds = %12
  %21 = load ptr, ptr %5, align 8, !tbaa !7
  %22 = getelementptr inbounds nuw %struct.hmac_data_st, ptr %21, i32 0, i32 1
  %23 = load ptr, ptr %22, align 8, !tbaa !9
  store ptr %23, ptr %6, align 8, !tbaa !19
  %24 = load ptr, ptr %5, align 8, !tbaa !7
  %25 = load ptr, ptr %4, align 8, !tbaa !7
  call void @llvm.memcpy.p0.p0.i64(ptr align 8 %24, ptr align 8 %25, i64 160, i1 false), !tbaa.struct !20
  %26 = load ptr, ptr %6, align 8, !tbaa !19
  %27 = load ptr, ptr %5, align 8, !tbaa !7
  %28 = getelementptr inbounds nuw %struct.hmac_data_st, ptr %27, i32 0, i32 1
  store ptr %26, ptr %28, align 8, !tbaa !9
  %29 = load ptr, ptr %5, align 8, !tbaa !7
  %30 = getelementptr inbounds nuw %struct.hmac_data_st, ptr %29, i32 0, i32 3
  store ptr null, ptr %30, align 8, !tbaa !27
  %31 = load ptr, ptr %5, align 8, !tbaa !7
  %32 = getelementptr inbounds nuw %struct.hmac_data_st, ptr %31, i32 0, i32 2
  call void @llvm.memset.p0.i64(ptr align 8 %32, i8 0, i64 24, i1 false)
  %33 = load ptr, ptr %5, align 8, !tbaa !7
  %34 = getelementptr inbounds nuw %struct.hmac_data_st, ptr %33, i32 0, i32 1
  %35 = load ptr, ptr %34, align 8, !tbaa !9
  %36 = load ptr, ptr %4, align 8, !tbaa !7
  %37 = getelementptr inbounds nuw %struct.hmac_data_st, ptr %36, i32 0, i32 1
  %38 = load ptr, ptr %37, align 8, !tbaa !9
  %39 = call i32 @HMAC_CTX_copy(ptr noundef %35, ptr noundef %38)
  %40 = icmp ne i32 %39, 0
  br i1 %40, label %41, label %48

41:                                               ; preds = %20
  %42 = load ptr, ptr %5, align 8, !tbaa !7
  %43 = getelementptr inbounds nuw %struct.hmac_data_st, ptr %42, i32 0, i32 2
  %44 = load ptr, ptr %4, align 8, !tbaa !7
  %45 = getelementptr inbounds nuw %struct.hmac_data_st, ptr %44, i32 0, i32 2
  %46 = call i32 @ossl_prov_digest_copy(ptr noundef %43, ptr noundef %45)
  %47 = icmp ne i32 %46, 0
  br i1 %47, label %50, label %48

48:                                               ; preds = %41, %20
  %49 = load ptr, ptr %5, align 8, !tbaa !7
  call void @hmac_free(ptr noundef %49)
  store ptr null, ptr %2, align 8
  store i32 1, ptr %7, align 4
  br label %88

50:                                               ; preds = %41
  %51 = load ptr, ptr %4, align 8, !tbaa !7
  %52 = getelementptr inbounds nuw %struct.hmac_data_st, ptr %51, i32 0, i32 3
  %53 = load ptr, ptr %52, align 8, !tbaa !27
  %54 = icmp ne ptr %53, null
  br i1 %54, label %55, label %86

55:                                               ; preds = %50
  %56 = load ptr, ptr %4, align 8, !tbaa !7
  %57 = getelementptr inbounds nuw %struct.hmac_data_st, ptr %56, i32 0, i32 4
  %58 = load i64, ptr %57, align 8, !tbaa !28
  %59 = icmp ugt i64 %58, 0
  br i1 %59, label %60, label %64

60:                                               ; preds = %55
  %61 = load ptr, ptr %4, align 8, !tbaa !7
  %62 = getelementptr inbounds nuw %struct.hmac_data_st, ptr %61, i32 0, i32 4
  %63 = load i64, ptr %62, align 8, !tbaa !28
  br label %65

64:                                               ; preds = %55
  br label %65

65:                                               ; preds = %64, %60
  %66 = phi i64 [ %63, %60 ], [ 1, %64 ]
  %67 = call noalias ptr @CRYPTO_secure_malloc(i64 noundef %66, ptr noundef @.str, i32 noundef 131)
  %68 = load ptr, ptr %5, align 8, !tbaa !7
  %69 = getelementptr inbounds nuw %struct.hmac_data_st, ptr %68, i32 0, i32 3
  store ptr %67, ptr %69, align 8, !tbaa !27
  %70 = load ptr, ptr %5, align 8, !tbaa !7
  %71 = getelementptr inbounds nuw %struct.hmac_data_st, ptr %70, i32 0, i32 3
  %72 = load ptr, ptr %71, align 8, !tbaa !27
  %73 = icmp eq ptr %72, null
  br i1 %73, label %74, label %76

74:                                               ; preds = %65
  %75 = load ptr, ptr %5, align 8, !tbaa !7
  call void @hmac_free(ptr noundef %75)
  store ptr null, ptr %2, align 8
  store i32 1, ptr %7, align 4
  br label %88

76:                                               ; preds = %65
  %77 = load ptr, ptr %5, align 8, !tbaa !7
  %78 = getelementptr inbounds nuw %struct.hmac_data_st, ptr %77, i32 0, i32 3
  %79 = load ptr, ptr %78, align 8, !tbaa !27
  %80 = load ptr, ptr %4, align 8, !tbaa !7
  %81 = getelementptr inbounds nuw %struct.hmac_data_st, ptr %80, i32 0, i32 3
  %82 = load ptr, ptr %81, align 8, !tbaa !27
  %83 = load ptr, ptr %4, align 8, !tbaa !7
  %84 = getelementptr inbounds nuw %struct.hmac_data_st, ptr %83, i32 0, i32 4
  %85 = load i64, ptr %84, align 8, !tbaa !28
  call void @llvm.memcpy.p0.p0.i64(ptr align 1 %79, ptr align 1 %82, i64 %85, i1 false)
  br label %86

86:                                               ; preds = %76, %50
  %87 = load ptr, ptr %5, align 8, !tbaa !7
  store ptr %87, ptr %2, align 8
  store i32 1, ptr %7, align 4
  br label %88

88:                                               ; preds = %86, %74, %48, %19, %11
  call void @llvm.lifetime.end.p0(i64 8, ptr %6) #6
  call void @llvm.lifetime.end.p0(i64 8, ptr %5) #6
  call void @llvm.lifetime.end.p0(i64 8, ptr %4) #6
  %89 = load ptr, ptr %2, align 8
  ret ptr %89
}