; Function Attrs: nounwind uwtable
define internal ptr @hmac_dup(ptr noundef %0) #0 {
  %2 = tail call i32 @ossl_prov_is_running() #7
  %.not = icmp eq i32 %2, 0
  br i1 %.not, label %hmac_new.exit.thread, label %3

3:                                                ; preds = %1
  %4 = tail call i32 @ossl_prov_is_running() #7
  %.not.i = icmp eq i32 %4, 0
  br i1 %.not.i, label %hmac_new.exit.thread, label %5

5:                                                ; preds = %3
  %6 = tail call noalias ptr @CRYPTO_zalloc(i64 noundef 160, ptr noundef nonnull @.str, i32 noundef 83) #7
  %7 = icmp eq ptr %6, null
  br i1 %7, label %12, label %8

8:                                                ; preds = %5
  %9 = tail call ptr @HMAC_CTX_new() #7
  %10 = getelementptr inbounds nuw i8, ptr %6, i64 8
  store ptr %9, ptr %10, align 8, !tbaa !3
  %11 = icmp eq ptr %9, null
  br i1 %11, label %12, label %13

12:                                               ; preds = %8, %5
  tail call void @CRYPTO_free(ptr noundef %6, ptr noundef nonnull @.str, i32 noundef 85) #7
  br label %hmac_new.exit.thread

13:                                               ; preds = %8
  tail call void @llvm.memcpy.p0.p0.i64(ptr noundef nonnull align 8 dereferenceable(160) %6, ptr noundef nonnull align 8 dereferenceable(160) %0, i64 160, i1 false), !tbaa.struct !16
  store ptr %9, ptr %10, align 8, !tbaa !3
  %14 = getelementptr inbounds nuw i8, ptr %6, i64 40
  %15 = getelementptr inbounds nuw i8, ptr %6, i64 16
  %16 = getelementptr inbounds nuw i8, ptr %0, i64 8
  tail call void @llvm.memset.p0.i64(ptr noundef nonnull align 8 dereferenceable(32) %15, i8 0, i64 32, i1 false)
  %17 = load ptr, ptr %16, align 8, !tbaa !3
  %18 = tail call i32 @HMAC_CTX_copy(ptr noundef nonnull %9, ptr noundef %17) #7
  %.not29 = icmp eq i32 %18, 0
  br i1 %.not29, label %hmac_free.exit, label %19

19:                                               ; preds = %13
  %20 = getelementptr inbounds nuw i8, ptr %0, i64 16
  %21 = tail call i32 @ossl_prov_digest_copy(ptr noundef nonnull %15, ptr noundef nonnull %20) #7
  %.not30 = icmp eq i32 %21, 0
  br i1 %.not30, label %hmac_free.exit, label %26

hmac_free.exit:                                   ; preds = %19, %13
  %22 = load ptr, ptr %10, align 8, !tbaa !3
  tail call void @HMAC_CTX_free(ptr noundef %22) #7
  tail call void @ossl_prov_digest_reset(ptr noundef nonnull %15) #7
  %23 = load ptr, ptr %14, align 8, !tbaa !25
  %24 = getelementptr inbounds nuw i8, ptr %6, i64 48
  %25 = load i64, ptr %24, align 8, !tbaa !26
  tail call void @CRYPTO_secure_clear_free(ptr noundef %23, i64 noundef %25, ptr noundef nonnull @.str, i32 noundef 101) #7
  tail call void @CRYPTO_free(ptr noundef nonnull %6, ptr noundef nonnull @.str, i32 noundef 102) #7
  br label %hmac_new.exit.thread

26:                                               ; preds = %19
  %27 = getelementptr inbounds nuw i8, ptr %0, i64 40
  %28 = load ptr, ptr %27, align 8, !tbaa !25
  %.not31 = icmp eq ptr %28, null
  br i1 %.not31, label %hmac_new.exit.thread, label %29

29:                                               ; preds = %26
  %30 = getelementptr inbounds nuw i8, ptr %0, i64 48
  %31 = load i64, ptr %30, align 8, !tbaa !26
  %spec.select = tail call i64 @llvm.umax.i64(i64 %31, i64 1)
  %32 = tail call noalias ptr @CRYPTO_secure_malloc(i64 noundef %spec.select, ptr noundef nonnull @.str, i32 noundef 131) #7
  store ptr %32, ptr %14, align 8, !tbaa !25
  %33 = icmp eq ptr %32, null
  br i1 %33, label %hmac_free.exit35, label %38

hmac_free.exit35:                                 ; preds = %29
  %34 = load ptr, ptr %10, align 8, !tbaa !3
  tail call void @HMAC_CTX_free(ptr noundef %34) #7
  tail call void @ossl_prov_digest_reset(ptr noundef nonnull %15) #7
  %35 = load ptr, ptr %14, align 8, !tbaa !25
  %36 = getelementptr inbounds nuw i8, ptr %6, i64 48
  %37 = load i64, ptr %36, align 8, !tbaa !26
  tail call void @CRYPTO_secure_clear_free(ptr noundef %35, i64 noundef %37, ptr noundef nonnull @.str, i32 noundef 101) #7
  tail call void @CRYPTO_free(ptr noundef nonnull %6, ptr noundef nonnull @.str, i32 noundef 102) #7
  br label %hmac_new.exit.thread

38:                                               ; preds = %29
  %39 = load ptr, ptr %27, align 8, !tbaa !25
  %40 = load i64, ptr %30, align 8, !tbaa !26
  tail call void @llvm.memcpy.p0.p0.i64(ptr nonnull align 1 %32, ptr align 1 %39, i64 %40, i1 false)
  br label %hmac_new.exit.thread

hmac_new.exit.thread:                             ; preds = %3, %12, %26, %38, %1, %hmac_free.exit35, %hmac_free.exit
  %.0 = phi ptr [ null, %hmac_free.exit35 ], [ null, %hmac_free.exit ], [ null, %1 ], [ %6, %38 ], [ %6, %26 ], [ null, %12 ], [ null, %3 ]
  ret ptr %.0
}